target datalayout = "e-m:e-p270:32:32-p271:32:32-p272:64:64-i64:64-i128:128-f80:128-n8:16:32:64-S128"
target triple = "x86_64-pc-linux-gnu"

%struct.FunctionCallInfoBaseData = type { ptr, ptr, ptr, i32, i8, i16, [0 x %struct.NullableDatum] }
%struct.NullableDatum = type { i64, i8 }
%struct.varattrib_1b = type { i8, [0 x i8] }
%struct.anon = type { i32, [0 x i8] }
%struct.inet_struct = type { i8, i8, [16 x i8] }

@.str.1 = private unnamed_addr constant [10 x i8] c"network.c\00", align 1
@.str.7 = private unnamed_addr constant [42 x i8] c"cannot AND inet values of different sizes\00", align 1
@__func__.inetand = private unnamed_addr constant [8 x i8] c"inetand\00", align 1

; Function Attrs: inlinehint nounwind uwtable
define internal i64 @PointerGetDatum(ptr noundef %0) #2 {
  %2 = alloca ptr, align 8
  store ptr %0, ptr %2, align 8
  %3 = load ptr, ptr %2, align 8
  %4 = ptrtoint ptr %3 to i64
  ret i64 %4
}

; Function Attrs: inlinehint nounwind uwtable
define internal ptr @DatumGetPointer(i64 noundef %0) #2 {
  %2 = alloca i64, align 8
  store i64 %0, ptr %2, align 8
  %3 = load i64, ptr %2, align 8
  %4 = inttoptr i64 %3 to ptr
  ret ptr %4
}

; Function Attrs: inlinehint nounwind uwtable
define internal i64 @InetPGetDatum(ptr noundef %0) #2 {
  %2 = alloca ptr, align 8
  store ptr %0, ptr %2, align 8
  %3 = load ptr, ptr %2, align 8
  %4 = call i64 @PointerGetDatum(ptr noundef %3)
  ret i64 %4
}

; Function Attrs: inlinehint nounwind uwtable
define internal ptr @DatumGetInetPP(i64 noundef %0) #2 {
  %2 = alloca i64, align 8
  store i64 %0, ptr %2, align 8
  %3 = load i64, ptr %2, align 8
  %4 = call ptr @DatumGetPointer(i64 noundef %3)
  %5 = call ptr @pg_detoast_datum_packed(ptr noundef %4)
  ret ptr %5
}

; Function Attrs: nounwind uwtable
define dso_local i64 @inetand(ptr noundef %0) #0 {
  %2 = alloca ptr, align 8
  %3 = alloca ptr, align 8
  %4 = alloca ptr, align 8
  %5 = alloca ptr, align 8
  %6 = alloca i32, align 4
  %7 = alloca ptr, align 8
  %8 = alloca ptr, align 8
  %9 = alloca ptr, align 8
  store ptr %0, ptr %2, align 8
  call void @llvm.lifetime.start.p0(i64 8, ptr %3) #8
  %10 = load ptr, ptr %2, align 8
  %11 = getelementptr inbounds nuw %struct.FunctionCallInfoBaseData, ptr %10, i32 0, i32 6
  %12 = getelementptr inbounds [0 x %struct.NullableDatum], ptr %11, i64 0, i64 0
  %13 = getelementptr inbounds nuw %struct.NullableDatum, ptr %12, i32 0, i32 0
  %14 = load i64, ptr %13, align 8
  %15 = call ptr @DatumGetInetPP(i64 noundef %14)
  store ptr %15, ptr %3, align 8
  call void @llvm.lifetime.start.p0(i64 8, ptr %4) #8
  %16 = load ptr, ptr %2, align 8
  %17 = getelementptr inbounds nuw %struct.FunctionCallInfoBaseData, ptr %16, i32 0, i32 6
  %18 = getelementptr inbounds [0 x %struct.NullableDatum], ptr %17, i64 0, i64 1
  %19 = getelementptr inbounds nuw %struct.NullableDatum, ptr %18, i32 0, i32 0
  %20 = load i64, ptr %19, align 8
  %21 = call ptr @DatumGetInetPP(i64 noundef %20)
  store ptr %21, ptr %4, align 8
  call void @llvm.lifetime.start.p0(i64 8, ptr %5) #8
  %22 = call ptr @palloc0(i64 noundef 22)
  store ptr %22, ptr %5, align 8
  %23 = load ptr, ptr %3, align 8
  %24 = getelementptr inbounds nuw %struct.varattrib_1b, ptr %23, i32 0, i32 0
  %25 = load i8, ptr %24, align 1
  %26 = zext i8 %25 to i32
  %27 = and i32 %26, 1
  %28 = icmp eq i32 %27, 1
  br i1 %28, label %29, label %33

29:                                               ; preds = %1
  %30 = load ptr, ptr %3, align 8
  %31 = getelementptr inbounds nuw %struct.varattrib_1b, ptr %30, i32 0, i32 1
  %32 = getelementptr inbounds [0 x i8], ptr %31, i64 0, i64 0
  br label %37

33:                                               ; preds = %1
  %34 = load ptr, ptr %3, align 8
  %35 = getelementptr inbounds nuw %struct.anon, ptr %34, i32 0, i32 1
  %36 = getelementptr inbounds [0 x i8], ptr %35, i64 0, i64 0
  br label %37

37:                                               ; preds = %33, %29
  %38 = phi ptr [ %32, %29 ], [ %36, %33 ]
  %39 = getelementptr inbounds nuw %struct.inet_struct, ptr %38, i32 0, i32 0
  %40 = load i8, ptr %39, align 1
  %41 = zext i8 %40 to i32
  %42 = load ptr, ptr %4, align 8
  %43 = getelementptr inbounds nuw %struct.varattrib_1b, ptr %42, i32 0, i32 0
  %44 = load i8, ptr %43, align 1
  %45 = zext i8 %44 to i32
  %46 = and i32 %45, 1
  %47 = icmp eq i32 %46, 1
  br i1 %47, label %48, label %52

48:                                               ; preds = %37
  %49 = load ptr, ptr %4, align 8
  %50 = getelementptr inbounds nuw %struct.varattrib_1b, ptr %49, i32 0, i32 1
  %51 = getelementptr inbounds [0 x i8], ptr %50, i64 0, i64 0
  br label %56

52:                                               ; preds = %37
  %53 = load ptr, ptr %4, align 8
  %54 = getelementptr inbounds nuw %struct.anon, ptr %53, i32 0, i32 1
  %55 = getelementptr inbounds [0 x i8], ptr %54, i64 0, i64 0
  br label %56

56:                                               ; preds = %52, %48
  %57 = phi ptr [ %51, %48 ], [ %55, %52 ]
  %58 = getelementptr inbounds nuw %struct.inet_struct, ptr %57, i32 0, i32 0
  %59 = load i8, ptr %58, align 1
  %60 = zext i8 %59 to i32
  %61 = icmp ne i32 %41, %60
  br i1 %61, label %62, label %74

62:                                               ; preds = %56
  br label %63

63:                                               ; preds = %62
  br i1 true, label %64, label %66

64:                                               ; preds = %63
  %65 = call zeroext i1 @errstart_cold(i32 noundef 21, ptr noundef null) #10
  br i1 %65, label %68, label %71

66:                                               ; preds = %63
  %67 = call zeroext i1 @errstart(i32 noundef 21, ptr noundef null)
  br i1 %67, label %68, label %71

68:                                               ; preds = %66, %64
  %69 = call i32 @errcode(i32 noundef 50856066)
  %70 = call i32 (ptr, ...) @errmsg(ptr noundef @.str.7)
  call void @errfinish(ptr noundef @.str.1, i32 noundef 1887, ptr noundef @__func__.inetand)
  br label %71

71:                                               ; preds = %68, %66, %64
  unreachable

72:                                               ; No predecessors!
  br label %73

73:                                               ; preds = %72
  br label %174

74:                                               ; preds = %56
  call void @llvm.lifetime.start.p0(i64 4, ptr %6) #8
  %75 = load ptr, ptr %3, align 8
  %76 = getelementptr inbounds nuw %struct.varattrib_1b, ptr %75, i32 0, i32 0
  %77 = load i8, ptr %76, align 1
  %78 = zext i8 %77 to i32
  %79 = and i32 %78, 1
  %80 = icmp eq i32 %79, 1
  br i1 %80, label %81, label %85

81:                                               ; preds = %74
  %82 = load ptr, ptr %3, align 8
  %83 = getelementptr inbounds nuw %struct.varattrib_1b, ptr %82, i32 0, i32 1
  %84 = getelementptr inbounds [0 x i8], ptr %83, i64 0, i64 0
  br label %89

85:                                               ; preds = %74
  %86 = load ptr, ptr %3, align 8
  %87 = getelementptr inbounds nuw %struct.anon, ptr %86, i32 0, i32 1
  %88 = getelementptr inbounds [0 x i8], ptr %87, i64 0, i64 0
  br label %89

89:                                               ; preds = %85, %81
  %90 = phi ptr [ %84, %81 ], [ %88, %85 ]
  %91 = getelementptr inbounds nuw %struct.inet_struct, ptr %90, i32 0, i32 0
  %92 = load i8, ptr %91, align 1
  %93 = zext i8 %92 to i32
  %94 = icmp eq i32 %93, 2
  %95 = select i1 %94, i32 4, i32 16
  store i32 %95, ptr %6, align 4
  call void @llvm.lifetime.start.p0(i64 8, ptr %7) #8
  %96 = load ptr, ptr %3, align 8
  %97 = getelementptr inbounds nuw %struct.varattrib_1b, ptr %96, i32 0, i32 0
  %98 = load i8, ptr %97, align 1
  %99 = zext i8 %98 to i32
  %100 = and i32 %99, 1
  %101 = icmp eq i32 %100, 1
  br i1 %101, label %102, label %106

102:                                              ; preds = %89
  %103 = load ptr, ptr %3, align 8
  %104 = getelementptr inbounds nuw %struct.varattrib_1b, ptr %103, i32 0, i32 1
  %105 = getelementptr inbounds [0 x i8], ptr %104, i64 0, i64 0
  br label %110

106:                                              ; preds = %89
  %107 = load ptr, ptr %3, align 8
  %108 = getelementptr inbounds nuw %struct.anon, ptr %107, i32 0, i32 1
  %109 = getelementptr inbounds [0 x i8], ptr %108, i64 0, i64 0
  br label %110

110:                                              ; preds = %106, %102
  %111 = phi ptr [ %105, %102 ], [ %109, %106 ]
  %112 = getelementptr inbounds nuw %struct.inet_struct, ptr %111, i32 0, i32 2
  %113 = getelementptr inbounds [16 x i8], ptr %112, i64 0, i64 0
  store ptr %113, ptr %7, align 8
  call void @llvm.lifetime.start.p0(i64 8, ptr %8) #8
  %114 = load ptr, ptr %4, align 8
  %115 = getelementptr inbounds nuw %struct.varattrib_1b, ptr %114, i32 0, i32 0
  %116 = load i8, ptr %115, align 1
  %117 = zext i8 %116 to i32
  %118 = and i32 %117, 1
  %119 = icmp eq i32 %118, 1
  br i1 %119, label %120, label %124

120:                                              ; preds = %110
  %121 = load ptr, ptr %4, align 8
  %122 = getelementptr inbounds nuw %struct.varattrib_1b, ptr %121, i32 0, i32 1
  %123 = getelementptr inbounds [0 x i8], ptr %122, i64 0, i64 0
  br label %128

124:                                              ; preds = %110
  %125 = load ptr, ptr %4, align 8
  %126 = getelementptr inbounds nuw %struct.anon, ptr %125, i32 0, i32 1
  %127 = getelementptr inbounds [0 x i8], ptr %126, i64 0, i64 0
  br label %128

128:                                              ; preds = %124, %120
  %129 = phi ptr [ %123, %120 ], [ %127, %124 ]
  %130 = getelementptr inbounds nuw %struct.inet_struct, ptr %129, i32 0, i32 2
  %131 = getelementptr inbounds [16 x i8], ptr %130, i64 0, i64 0
  store ptr %131, ptr %8, align 8
  call void @llvm.lifetime.start.p0(i64 8, ptr %9) #8
  %132 = load ptr, ptr %5, align 8
  %133 = getelementptr inbounds nuw %struct.varattrib_1b, ptr %132, i32 0, i32 0
  %134 = load i8, ptr %133, align 1
  %135 = zext i8 %134 to i32
  %136 = and i32 %135, 1
  %137 = icmp eq i32 %136, 1
  br i1 %137, label %138, label %142

138:                                              ; preds = %128
  %139 = load ptr, ptr %5, align 8
  %140 = getelementptr inbounds nuw %struct.varattrib_1b, ptr %139, i32 0, i32 1
  %141 = getelementptr inbounds [0 x i8], ptr %140, i64 0, i64 0
  br label %146

142:                                              ; preds = %128
  %143 = load ptr, ptr %5, align 8
  %144 = getelementptr inbounds nuw %struct.anon, ptr %143, i32 0, i32 1
  %145 = getelementptr inbounds [0 x i8], ptr %144, i64 0, i64 0
  br label %146

146:                                              ; preds = %142, %138
  %147 = phi ptr [ %141, %138 ], [ %145, %142 ]
  %148 = getelementptr inbounds nuw %struct.inet_struct, ptr %147, i32 0, i32 2
  %149 = getelementptr inbounds [16 x i8], ptr %148, i64 0, i64 0
  store ptr %149, ptr %9, align 8
  br label %150

150:                                              ; preds = %154, %146
  %151 = load i32, ptr %6, align 4
  %152 = add i32 %151, -1
  store i32 %152, ptr %6, align 4
  %153 = icmp sge i32 %152, 0
  br i1 %153, label %154, label %173

154:                                              ; preds = %150
  %155 = load ptr, ptr %7, align 8
  %156 = load i32, ptr %6, align 4
  %157 = sext i32 %156 to i64
  %158 = getelementptr inbounds i8, ptr %155, i64 %157
  %159 = load i8, ptr %158, align 1
  %160 = zext i8 %159 to i32
  %161 = load ptr, ptr %8, align 8
  %162 = load i32, ptr %6, align 4
  %163 = sext i32 %162 to i64
  %164 = getelementptr inbounds i8, ptr %161, i64 %163
  %165 = load i8, ptr %164, align 1
  %166 = zext i8 %165 to i32
  %167 = and i32 %160, %166
  %168 = trunc i32 %167 to i8
  %169 = load ptr, ptr %9, align 8
  %170 = load i32, ptr %6, align 4
  %171 = sext i32 %170 to i64
  %172 = getelementptr inbounds i8, ptr %169, i64 %171
  store i8 %168, ptr %172, align 1
  br label %150, !llvm.loop !18

173:                                              ; preds = %150
  call void @llvm.lifetime.end.p0(i64 8, ptr %9) #8
  call void @llvm.lifetime.end.p0(i64 8, ptr %8) #8
  call void @llvm.lifetime.end.p0(i64 8, ptr %7) #8
  call void @llvm.lifetime.end.p0(i64 4, ptr %6) #8
  br label %174

174:                                              ; preds = %173, %73
  %175 = load ptr, ptr %3, align 8
  %176 = getelementptr inbounds nuw %struct.varattrib_1b, ptr %175, i32 0, i32 0
  %177 = load i8, ptr %176, align 1
  %178 = zext i8 %177 to i32
  %179 = and i32 %178, 1
  %180 = icmp eq i32 %179, 1
  br i1 %180, label %181, label %185

181:                                              ; preds = %174
  %182 = load ptr, ptr %3, align 8
  %183 = getelementptr inbounds nuw %struct.varattrib_1b, ptr %182, i32 0, i32 1
  %184 = getelementptr inbounds [0 x i8], ptr %183, i64 0, i64 0
  br label %189

185:                                              ; preds = %174
  %186 = load ptr, ptr %3, align 8
  %187 = getelementptr inbounds nuw %struct.anon, ptr %186, i32 0, i32 1
  %188 = getelementptr inbounds [0 x i8], ptr %187, i64 0, i64 0
  br label %189

189:                                              ; preds = %185, %181
  %190 = phi ptr [ %184, %181 ], [ %188, %185 ]
  %191 = getelementptr inbounds nuw %struct.inet_struct, ptr %190, i32 0, i32 1
  %192 = load i8, ptr %191, align 1
  %193 = zext i8 %192 to i32
  %194 = load ptr, ptr %4, align 8
  %195 = getelementptr inbounds nuw %struct.varattrib_1b, ptr %194, i32 0, i32 0
  %196 = load i8, ptr %195, align 1
  %197 = zext i8 %196 to i32
  %198 = and i32 %197, 1
  %199 = icmp eq i32 %198, 1
  br i1 %199, label %200, label %204

200:                                              ; preds = %189
  %201 = load ptr, ptr %4, align 8
  %202 = getelementptr inbounds nuw %struct.varattrib_1b, ptr %201, i32 0, i32 1
  %203 = getelementptr inbounds [0 x i8], ptr %202, i64 0, i64 0
  br label %208

204:                                              ; preds = %189
  %205 = load ptr, ptr %4, align 8
  %206 = getelementptr inbounds nuw %struct.anon, ptr %205, i32 0, i32 1
  %207 = getelementptr inbounds [0 x i8], ptr %206, i64 0, i64 0
  br label %208

208:                                              ; preds = %204, %200
  %209 = phi ptr [ %203, %200 ], [ %207, %204 ]
  %210 = getelementptr inbounds nuw %struct.inet_struct, ptr %209, i32 0, i32 1
  %211 = load i8, ptr %210, align 1
  %212 = zext i8 %211 to i32
  %213 = icmp sgt i32 %193, %212
  br i1 %213, label %214, label %234

214:                                              ; preds = %208
  %215 = load ptr, ptr %3, align 8
  %216 = getelementptr inbounds nuw %struct.varattrib_1b, ptr %215, i32 0, i32 0
  %217 = load i8, ptr %216, align 1
  %218 = zext i8 %217 to i32
  %219 = and i32 %218, 1
  %220 = icmp eq i32 %219, 1
  br i1 %220, label %221, label %225

221:                                              ; preds = %214
  %222 = load ptr, ptr %3, align 8
  %223 = getelementptr inbounds nuw %struct.varattrib_1b, ptr %222, i32 0, i32 1
  %224 = getelementptr inbounds [0 x i8], ptr %223, i64 0, i64 0
  br label %229

225:                                              ; preds = %214
  %226 = load ptr, ptr %3, align 8
  %227 = getelementptr inbounds nuw %struct.anon, ptr %226, i32 0, i32 1
  %228 = getelementptr inbounds [0 x i8], ptr %227, i64 0, i64 0
  br label %229

229:                                              ; preds = %225, %221
  %230 = phi ptr [ %224, %221 ], [ %228, %225 ]
  %231 = getelementptr inbounds nuw %struct.inet_struct, ptr %230, i32 0, i32 1
  %232 = load i8, ptr %231, align 1
  %233 = zext i8 %232 to i32
  br label %254

234:                                              ; preds = %208
  %235 = load ptr, ptr %4, align 8
  %236 = getelementptr inbounds nuw %struct.varattrib_1b, ptr %235, i32 0, i32 0
  %237 = load i8, ptr %236, align 1
  %238 = zext i8 %237 to i32
  %239 = and i32 %238, 1
  %240 = icmp eq i32 %239, 1
  br i1 %240, label %241, label %245

241:                                              ; preds = %234
  %242 = load ptr, ptr %4, align 8
  %243 = getelementptr inbounds nuw %struct.varattrib_1b, ptr %242, i32 0, i32 1
  %244 = getelementptr inbounds [0 x i8], ptr %243, i64 0, i64 0
  br label %249

245:                                              ; preds = %234
  %246 = load ptr, ptr %4, align 8
  %247 = getelementptr inbounds nuw %struct.anon, ptr %246, i32 0, i32 1
  %248 = getelementptr inbounds [0 x i8], ptr %247, i64 0, i64 0
  br label %249

249:                                              ; preds = %245, %241
  %250 = phi ptr [ %244, %241 ], [ %248, %245 ]
  %251 = getelementptr inbounds nuw %struct.inet_struct, ptr %250, i32 0, i32 1
  %252 = load i8, ptr %251, align 1
  %253 = zext i8 %252 to i32
  br label %254

254:                                              ; preds = %249, %229
  %255 = phi i32 [ %233, %229 ], [ %253, %249 ]
  %256 = trunc i32 %255 to i8
  %257 = load ptr, ptr %5, align 8
  %258 = getelementptr inbounds nuw %struct.varattrib_1b, ptr %257, i32 0, i32 0
  %259 = load i8, ptr %258, align 1
  %260 = zext i8 %259 to i32
  %261 = and i32 %260, 1
  %262 = icmp eq i32 %261, 1
  br i1 %262, label %263, label %267

263:                                              ; preds = %254
  %264 = load ptr, ptr %5, align 8
  %265 = getelementptr inbounds nuw %struct.varattrib_1b, ptr %264, i32 0, i32 1
  %266 = getelementptr inbounds [0 x i8], ptr %265, i64 0, i64 0
  br label %271

267:                                              ; preds = %254
  %268 = load ptr, ptr %5, align 8
  %269 = getelementptr inbounds nuw %struct.anon, ptr %268, i32 0, i32 1
  %270 = getelementptr inbounds [0 x i8], ptr %269, i64 0, i64 0
  br label %271

271:                                              ; preds = %267, %263
  %272 = phi ptr [ %266, %263 ], [ %270, %267 ]
  %273 = getelementptr inbounds nuw %struct.inet_struct, ptr %272, i32 0, i32 1
  store i8 %256, ptr %273, align 1
  %274 = load ptr, ptr %3, align 8
  %275 = getelementptr inbounds nuw %struct.varattrib_1b, ptr %274, i32 0, i32 0
  %276 = load i8, ptr %275, align 1
  %277 = zext i8 %276 to i32
  %278 = and i32 %277, 1
  %279 = icmp eq i32 %278, 1
  br i1 %279, label %280, label %284

280:                                              ; preds = %271
  %281 = load ptr, ptr %3, align 8
  %282 = getelementptr inbounds nuw %struct.varattrib_1b, ptr %281, i32 0, i32 1
  %283 = getelementptr inbounds [0 x i8], ptr %282, i64 0, i64 0
  br label %288

284:                                              ; preds = %271
  %285 = load ptr, ptr %3, align 8
  %286 = getelementptr inbounds nuw %struct.anon, ptr %285, i32 0, i32 1
  %287 = getelementptr inbounds [0 x i8], ptr %286, i64 0, i64 0
  br label %288

288:                                              ; preds = %284, %280
  %289 = phi ptr [ %283, %280 ], [ %287, %284 ]
  %290 = getelementptr inbounds nuw %struct.inet_struct, ptr %289, i32 0, i32 0
  %291 = load i8, ptr %290, align 1
  %292 = load ptr, ptr %5, align 8
  %293 = getelementptr inbounds nuw %struct.varattrib_1b, ptr %292, i32 0, i32 0
  %294 = load i8, ptr %293, align 1
  %295 = zext i8 %294 to i32
  %296 = and i32 %295, 1
  %297 = icmp eq i32 %296, 1
  br i1 %297, label %298, label %302

298:                                              ; preds = %288
  %299 = load ptr, ptr %5, align 8
  %300 = getelementptr inbounds nuw %struct.varattrib_1b, ptr %299, i32 0, i32 1
  %301 = getelementptr inbounds [0 x i8], ptr %300, i64 0, i64 0
  br label %306

302:                                              ; preds = %288
  %303 = load ptr, ptr %5, align 8
  %304 = getelementptr inbounds nuw %struct.anon, ptr %303, i32 0, i32 1
  %305 = getelementptr inbounds [0 x i8], ptr %304, i64 0, i64 0
  br label %306

306:                                              ; preds = %302, %298
  %307 = phi ptr [ %301, %298 ], [ %305, %302 ]
  %308 = getelementptr inbounds nuw %struct.inet_struct, ptr %307, i32 0, i32 0
  store i8 %291, ptr %308, align 1
  %309 = load ptr, ptr %5, align 8
  %310 = getelementptr inbounds nuw %struct.varattrib_1b, ptr %309, i32 0, i32 0
  %311 = load i8, ptr %310, align 1
  %312 = zext i8 %311 to i32
  %313 = and i32 %312, 1
  %314 = icmp eq i32 %313, 1
  br i1 %314, label %315, label %319

315:                                              ; preds = %306
  %316 = load ptr, ptr %5, align 8
  %317 = getelementptr inbounds nuw %struct.varattrib_1b, ptr %316, i32 0, i32 1
  %318 = getelementptr inbounds [0 x i8], ptr %317, i64 0, i64 0
  br label %323

319:                                              ; preds = %306
  %320 = load ptr, ptr %5, align 8
  %321 = getelementptr inbounds nuw %struct.anon, ptr %320, i32 0, i32 1
  %322 = getelementptr inbounds [0 x i8], ptr %321, i64 0, i64 0
  br label %323

323:                                              ; preds = %319, %315
  %324 = phi ptr [ %318, %315 ], [ %322, %319 ]
  %325 = getelementptr inbounds nuw %struct.inet_struct, ptr %324, i32 0, i32 0
  %326 = load i8, ptr %325, align 1
  %327 = zext i8 %326 to i32
  %328 = icmp eq i32 %327, 2
  %329 = select i1 %328, i32 4, i32 16
  %330 = sext i32 %329 to i64
  %331 = add i64 6, %330
  %332 = trunc i64 %331 to i32
  %333 = shl i32 %332, 2
  %334 = load ptr, ptr %5, align 8
  %335 = getelementptr inbounds nuw %struct.anon, ptr %334, i32 0, i32 0
  store i32 %333, ptr %335, align 4
  %336 = load ptr, ptr %5, align 8
  %337 = call i64 @InetPGetDatum(ptr noundef %336)
  call void @llvm.lifetime.end.p0(i64 8, ptr %5) #8
  call void @llvm.lifetime.end.p0(i64 8, ptr %4) #8
  call void @llvm.lifetime.end.p0(i64 8, ptr %3) #8
  ret i64 %337
}