; Function Attrs: nounwind uwtable
define dso_local i64 @inetand(ptr noundef readonly captures(none) %0) local_unnamed_addr #0 {
  %2 = getelementptr inbounds nuw i8, ptr %0, i64 32
  %3 = load i64, ptr %2, align 8
  %4 = inttoptr i64 %3 to ptr
  %5 = tail call ptr @pg_detoast_datum_packed(ptr noundef %4) #14
  %6 = getelementptr inbounds nuw i8, ptr %0, i64 48
  %7 = load i64, ptr %6, align 8
  %8 = inttoptr i64 %7 to ptr
  %9 = tail call ptr @pg_detoast_datum_packed(ptr noundef %8) #14
  %10 = tail call ptr @palloc0(i64 noundef 22) #14
  %11 = load i8, ptr %5, align 1
  %12 = and i8 %11, 1
  %.not = icmp eq i8 %12, 0
  %13 = getelementptr inbounds nuw i8, ptr %5, i64 1
  %14 = getelementptr inbounds nuw i8, ptr %5, i64 4
  %15 = select i1 %.not, ptr %14, ptr %13
  %16 = load i8, ptr %15, align 1
  %17 = load i8, ptr %9, align 1
  %18 = and i8 %17, 1
  %.not56 = icmp eq i8 %18, 0
  %19 = getelementptr inbounds nuw i8, ptr %9, i64 1
  %20 = getelementptr inbounds nuw i8, ptr %9, i64 4
  %21 = select i1 %.not56, ptr %20, ptr %19
  %22 = load i8, ptr %21, align 1
  %.not57 = icmp eq i8 %16, %22
  br i1 %.not57, label %.lr.ph.preheader, label %23

23:                                               ; preds = %1
  %24 = tail call zeroext i1 @errstart_cold(i32 noundef 21, ptr noundef null) #16
  tail call void @llvm.assume(i1 %24)
  %25 = tail call i32 @errcode(i32 noundef 50856066) #14
  %26 = tail call i32 (ptr, ...) @errmsg(ptr noundef nonnull @.str.7) #14
  tail call void @errfinish(ptr noundef nonnull @.str.1, i32 noundef 1887, ptr noundef nonnull @__func__.inetand) #14
  unreachable

.lr.ph.preheader:                                 ; preds = %1
  %27 = getelementptr inbounds nuw i8, ptr %15, i64 2
  %28 = getelementptr inbounds nuw i8, ptr %21, i64 2
  %29 = load i8, ptr %10, align 1
  %30 = and i8 %29, 1
  %.not58 = icmp eq i8 %30, 0
  %31 = getelementptr inbounds nuw i8, ptr %10, i64 1
  %32 = getelementptr inbounds nuw i8, ptr %10, i64 4
  %33 = select i1 %.not58, ptr %32, ptr %31
  %34 = getelementptr inbounds nuw i8, ptr %33, i64 2
  %35 = icmp eq i8 %16, 2
  %36 = select i1 %35, i64 3, i64 15
  br label %.lr.ph

.lr.ph:                                           ; preds = %.lr.ph.preheader, %.lr.ph
  %indvars.iv = phi i64 [ %36, %.lr.ph.preheader ], [ %indvars.iv.next, %.lr.ph ]
  %37 = getelementptr inbounds nuw i8, ptr %27, i64 %indvars.iv
  %38 = load i8, ptr %37, align 1
  %39 = getelementptr inbounds nuw i8, ptr %28, i64 %indvars.iv
  %40 = load i8, ptr %39, align 1
  %41 = and i8 %40, %38
  %42 = getelementptr inbounds nuw i8, ptr %34, i64 %indvars.iv
  store i8 %41, ptr %42, align 1
  %indvars.iv.next = add nsw i64 %indvars.iv, -1
  %.not73 = icmp eq i64 %indvars.iv, 0
  br i1 %.not73, label %._crit_edge, label %.lr.ph, !llvm.loop !31

._crit_edge:                                      ; preds = %.lr.ph
  %.pre67 = load i8, ptr %10, align 1
  %.pre71 = and i8 %.pre67, 1
  %.pre66 = load i8, ptr %9, align 1
  %.pre69 = and i8 %.pre66, 1
  %.pre = load i8, ptr %5, align 1
  %.pre68 = and i8 %.pre, 1
  %.not59 = icmp eq i8 %.pre68, 0
  %43 = select i1 %.not59, ptr %14, ptr %13
  %44 = getelementptr inbounds nuw i8, ptr %43, i64 1
  %45 = load i8, ptr %44, align 1
  %.not60 = icmp eq i8 %.pre69, 0
  %46 = select i1 %.not60, ptr %20, ptr %19
  %47 = getelementptr inbounds nuw i8, ptr %46, i64 1
  %48 = load i8, ptr %47, align 1
  %. = tail call i8 @llvm.umax.i8(i8 %45, i8 %48)
  %.not61 = icmp eq i8 %.pre71, 0
  %49 = select i1 %.not61, ptr %32, ptr %31
  %50 = getelementptr inbounds nuw i8, ptr %49, i64 1
  store i8 %., ptr %50, align 1
  %51 = load i8, ptr %5, align 1
  %52 = and i8 %51, 1
  %.not62 = icmp eq i8 %52, 0
  %53 = select i1 %.not62, ptr %14, ptr %13
  %54 = load i8, ptr %53, align 1
  %55 = load i8, ptr %10, align 1
  %56 = and i8 %55, 1
  %.not63 = icmp eq i8 %56, 0
  %57 = select i1 %.not63, ptr %32, ptr %31
  store i8 %54, ptr %57, align 1
  %58 = icmp eq i8 %54, 2
  %59 = select i1 %58, i32 40, i32 88
  store i32 %59, ptr %10, align 4
  %60 = ptrtoint ptr %10 to i64
  ret i64 %60
}